target datalayout = "e-m:e-p270:32:32-p271:32:32-p272:64:64-i64:64-i128:128-f80:128-n8:16:32:64-S128"
target triple = "x86_64-pc-linux-gnu"

%struct.ssl_st = type { i32, i16, i16, ptr, ptr, ptr, ptr, ptr, i32, i32, ptr, ptr, i32, i32, ptr, ptr, ptr, ptr, ptr, ptr, ptr, ptr, i32, i32, [32 x i8], ptr, ptr, ptr, ptr, ptr, ptr, ptr, i64, %struct.crypto_ex_data_st, ptr, i32, i32, i32, i32, i16, ptr, i32, i64, ptr, ptr, ptr, ptr, ptr, ptr, i32, i32, ptr, ptr, i8, i8, i32 }
%struct.crypto_ex_data_st = type { ptr }
%struct.cert_st = type { ptr, ptr, ptr, ptr, i32, i32, ptr, ptr, ptr, i64, ptr, i64, ptr, ptr, ptr }
%struct.tls_sigalgs_st = type { i8, i8 }

@tls1_choose_signing_digest.kDefaultDigestList = internal constant [4 x i32] [i32 672, i32 673, i32 674, i32 64], align 16

; Function Attrs: nounwind uwtable
define internal i32 @tls12_get_pkey_type(i8 noundef zeroext %0) #0 {
  %2 = alloca i32, align 4
  %3 = alloca i8, align 1
  store i8 %0, ptr %3, align 1, !tbaa !103
  %4 = load i8, ptr %3, align 1, !tbaa !103
  %5 = zext i8 %4 to i32
  switch i32 %5, label %8 [
    i32 1, label %6
    i32 3, label %7
  ]

6:                                                ; preds = %1
  store i32 6, ptr %2, align 4
  br label %9

7:                                                ; preds = %1
  store i32 408, ptr %2, align 4
  br label %9

8:                                                ; preds = %1
  store i32 -1, ptr %2, align 4
  br label %9

9:                                                ; preds = %8, %7, %6
  %10 = load i32, ptr %2, align 4
  ret i32 %10
}

; Function Attrs: nounwind uwtable
define hidden ptr @tls12_get_hash(i8 noundef zeroext %0) #0 {
  %2 = alloca ptr, align 8
  %3 = alloca i8, align 1
  store i8 %0, ptr %3, align 1, !tbaa !103
  %4 = load i8, ptr %3, align 1, !tbaa !103
  %5 = zext i8 %4 to i32
  switch i32 %5, label %14 [
    i32 2, label %6
    i32 4, label %8
    i32 5, label %10
    i32 6, label %12
  ]

6:                                                ; preds = %1
  %7 = call ptr @EVP_sha1()
  store ptr %7, ptr %2, align 8
  br label %15

8:                                                ; preds = %1
  %9 = call ptr @EVP_sha256()
  store ptr %9, ptr %2, align 8
  br label %15

10:                                               ; preds = %1
  %11 = call ptr @EVP_sha384()
  store ptr %11, ptr %2, align 8
  br label %15

12:                                               ; preds = %1
  %13 = call ptr @EVP_sha512()
  store ptr %13, ptr %2, align 8
  br label %15

14:                                               ; preds = %1
  store ptr null, ptr %2, align 8
  br label %15

15:                                               ; preds = %14, %12, %10, %8, %6
  %16 = load ptr, ptr %2, align 8
  ret ptr %16
}

; Function Attrs: nounwind uwtable
define hidden ptr @tls1_choose_signing_digest(ptr noundef %0) #0 {
  %2 = alloca ptr, align 8
  %3 = alloca ptr, align 8
  %4 = alloca ptr, align 8
  %5 = alloca i32, align 4
  %6 = alloca i64, align 8
  %7 = alloca i64, align 8
  %8 = alloca ptr, align 8
  %9 = alloca i64, align 8
  %10 = alloca i32, align 4
  %11 = alloca ptr, align 8
  %12 = alloca i32, align 4
  store ptr %0, ptr %3, align 8, !tbaa !69
  call void @llvm.lifetime.start.p0(i64 8, ptr %4) #8
  %13 = load ptr, ptr %3, align 8, !tbaa !69
  %14 = getelementptr inbounds nuw %struct.ssl_st, ptr %13, i32 0, i32 21
  %15 = load ptr, ptr %14, align 8, !tbaa !113
  store ptr %15, ptr %4, align 8, !tbaa !114
  call void @llvm.lifetime.start.p0(i64 4, ptr %5) #8
  %16 = load ptr, ptr %3, align 8, !tbaa !69
  %17 = call i32 @ssl_private_key_type(ptr noundef %16)
  store i32 %17, ptr %5, align 4, !tbaa !58
  call void @llvm.lifetime.start.p0(i64 8, ptr %6) #8
  call void @llvm.lifetime.start.p0(i64 8, ptr %7) #8
  call void @llvm.lifetime.start.p0(i64 8, ptr %8) #8
  store ptr @tls1_choose_signing_digest.kDefaultDigestList, ptr %8, align 8, !tbaa !93
  call void @llvm.lifetime.start.p0(i64 8, ptr %9) #8
  store i64 4, ptr %9, align 8, !tbaa !56
  %18 = load ptr, ptr %4, align 8, !tbaa !114
  %19 = getelementptr inbounds nuw %struct.cert_st, ptr %18, i32 0, i32 10
  %20 = load ptr, ptr %19, align 8, !tbaa !171
  %21 = icmp ne ptr %20, null
  br i1 %21, label %22, label %29

22:                                               ; preds = %1
  %23 = load ptr, ptr %4, align 8, !tbaa !114
  %24 = getelementptr inbounds nuw %struct.cert_st, ptr %23, i32 0, i32 10
  %25 = load ptr, ptr %24, align 8, !tbaa !171
  store ptr %25, ptr %8, align 8, !tbaa !93
  %26 = load ptr, ptr %4, align 8, !tbaa !114
  %27 = getelementptr inbounds nuw %struct.cert_st, ptr %26, i32 0, i32 11
  %28 = load i64, ptr %27, align 8, !tbaa !172
  store i64 %28, ptr %9, align 8, !tbaa !56
  br label %29

29:                                               ; preds = %22, %1
  store i64 0, ptr %6, align 8, !tbaa !56
  br label %30

30:                                               ; preds = %84, %29
  %31 = load i64, ptr %6, align 8, !tbaa !56
  %32 = load i64, ptr %9, align 8, !tbaa !56
  %33 = icmp ult i64 %31, %32
  br i1 %33, label %34, label %87

34:                                               ; preds = %30
  call void @llvm.lifetime.start.p0(i64 4, ptr %10) #8
  %35 = load ptr, ptr %8, align 8, !tbaa !93
  %36 = load i64, ptr %6, align 8, !tbaa !56
  %37 = getelementptr inbounds nuw i32, ptr %35, i64 %36
  %38 = load i32, ptr %37, align 4, !tbaa !58
  store i32 %38, ptr %10, align 4, !tbaa !58
  store i64 0, ptr %7, align 8, !tbaa !56
  br label %39

39:                                               ; preds = %77, %34
  %40 = load i64, ptr %7, align 8, !tbaa !56
  %41 = load ptr, ptr %4, align 8, !tbaa !114
  %42 = getelementptr inbounds nuw %struct.cert_st, ptr %41, i32 0, i32 9
  %43 = load i64, ptr %42, align 8, !tbaa !168
  %44 = icmp ult i64 %40, %43
  br i1 %44, label %45, label %80

45:                                               ; preds = %39
  call void @llvm.lifetime.start.p0(i64 8, ptr %11) #8
  %46 = load ptr, ptr %4, align 8, !tbaa !114
  %47 = getelementptr inbounds nuw %struct.cert_st, ptr %46, i32 0, i32 8
  %48 = load ptr, ptr %47, align 8, !tbaa !167
  %49 = load i64, ptr %7, align 8, !tbaa !56
  %50 = getelementptr inbounds nuw %struct.tls_sigalgs_st, ptr %48, i64 %49
  %51 = getelementptr inbounds nuw %struct.tls_sigalgs_st, ptr %50, i32 0, i32 1
  %52 = load i8, ptr %51, align 1, !tbaa !173
  %53 = call ptr @tls12_get_hash(i8 noundef zeroext %52)
  store ptr %53, ptr %11, align 8, !tbaa !112
  %54 = load ptr, ptr %11, align 8, !tbaa !112
  %55 = icmp eq ptr %54, null
  br i1 %55, label %72, label %56

56:                                               ; preds = %45
  %57 = load i32, ptr %10, align 4, !tbaa !58
  %58 = load ptr, ptr %11, align 8, !tbaa !112
  %59 = call i32 @EVP_MD_type(ptr noundef %58)
  %60 = icmp ne i32 %57, %59
  br i1 %60, label %72, label %61

61:                                               ; preds = %56
  %62 = load ptr, ptr %4, align 8, !tbaa !114
  %63 = getelementptr inbounds nuw %struct.cert_st, ptr %62, i32 0, i32 8
  %64 = load ptr, ptr %63, align 8, !tbaa !167
  %65 = load i64, ptr %7, align 8, !tbaa !56
  %66 = getelementptr inbounds nuw %struct.tls_sigalgs_st, ptr %64, i64 %65
  %67 = getelementptr inbounds nuw %struct.tls_sigalgs_st, ptr %66, i32 0, i32 0
  %68 = load i8, ptr %67, align 1, !tbaa !175
  %69 = call i32 @tls12_get_pkey_type(i8 noundef zeroext %68)
  %70 = load i32, ptr %5, align 4, !tbaa !58
  %71 = icmp ne i32 %69, %70
  br i1 %71, label %72, label %73

72:                                               ; preds = %61, %56, %45
  store i32 7, ptr %12, align 4
  br label %75

73:                                               ; preds = %61
  %74 = load ptr, ptr %11, align 8, !tbaa !112
  store ptr %74, ptr %2, align 8
  store i32 1, ptr %12, align 4
  br label %75

75:                                               ; preds = %73, %72
  call void @llvm.lifetime.end.p0(i64 8, ptr %11) #8
  %76 = load i32, ptr %12, align 4
  switch i32 %76, label %81 [
    i32 7, label %77
  ]

77:                                               ; preds = %75
  %78 = load i64, ptr %7, align 8, !tbaa !56
  %79 = add i64 %78, 1
  store i64 %79, ptr %7, align 8, !tbaa !56
  br label %39, !llvm.loop !176

80:                                               ; preds = %39
  store i32 0, ptr %12, align 4
  br label %81

81:                                               ; preds = %80, %75
  call void @llvm.lifetime.end.p0(i64 4, ptr %10) #8
  %82 = load i32, ptr %12, align 4
  switch i32 %82, label %89 [
    i32 0, label %83
  ]

83:                                               ; preds = %81
  br label %84

84:                                               ; preds = %83
  %85 = load i64, ptr %6, align 8, !tbaa !56
  %86 = add i64 %85, 1
  store i64 %86, ptr %6, align 8, !tbaa !56
  br label %30, !llvm.loop !177

87:                                               ; preds = %30
  %88 = call ptr @EVP_sha1()
  store ptr %88, ptr %2, align 8
  store i32 1, ptr %12, align 4
  br label %89

89:                                               ; preds = %87, %81
  call void @llvm.lifetime.end.p0(i64 8, ptr %9) #8
  call void @llvm.lifetime.end.p0(i64 8, ptr %8) #8
  call void @llvm.lifetime.end.p0(i64 8, ptr %7) #8
  call void @llvm.lifetime.end.p0(i64 8, ptr %6) #8
  call void @llvm.lifetime.end.p0(i64 4, ptr %5) #8
  call void @llvm.lifetime.end.p0(i64 8, ptr %4) #8
  %90 = load ptr, ptr %2, align 8
  ret ptr %90
}