; Function Attrs: nounwind uwtable
define hidden ptr @tls1_choose_signing_digest(ptr noundef %0) local_unnamed_addr #0 {
  %2 = getelementptr inbounds nuw i8, ptr %0, i64 136
  %3 = load ptr, ptr %2, align 8, !tbaa !93
  %4 = tail call i32 @ssl_private_key_type(ptr noundef %0) #21
  %5 = getelementptr inbounds nuw i8, ptr %3, i64 72
  %6 = load ptr, ptr %5, align 8, !tbaa !139
  %.not = icmp eq ptr %6, null
  br i1 %.not, label %.lr.ph50, label %7

7:                                                ; preds = %1
  %8 = getelementptr inbounds nuw i8, ptr %3, i64 80
  %9 = load i64, ptr %8, align 8, !tbaa !140
  %.not52 = icmp eq i64 %9, 0
  br i1 %.not52, label %._crit_edge51, label %.lr.ph50

.lr.ph50:                                         ; preds = %1, %7
  %.02860 = phi i64 [ %9, %7 ], [ 4, %1 ]
  %.02959 = phi ptr [ %6, %7 ], [ @tls1_choose_signing_digest.kDefaultDigestList, %1 ]
  %10 = getelementptr inbounds nuw i8, ptr %3, i64 64
  %11 = getelementptr inbounds nuw i8, ptr %3, i64 56
  %12 = load i64, ptr %10, align 8, !tbaa !137
  %.not53 = icmp eq i64 %12, 0
  br i1 %.not53, label %._crit_edge51, label %.lr.ph50.split

.lr.ph50.split:                                   ; preds = %.lr.ph50, %._crit_edge
  %13 = phi i64 [ %36, %._crit_edge ], [ 1, %.lr.ph50 ]
  %.02747 = phi i64 [ %37, %._crit_edge ], [ 0, %.lr.ph50 ]
  %14 = getelementptr inbounds nuw i32, ptr %.02959, i64 %.02747
  %15 = load i32, ptr %14, align 4, !tbaa !80
  %.not3544.not = icmp eq i64 %13, 0
  br i1 %.not3544.not, label %._crit_edge, label %.lr.ph

.lr.ph:                                           ; preds = %.lr.ph50.split, %.thread
  %.03045 = phi i64 [ %34, %.thread ], [ 0, %.lr.ph50.split ]
  %16 = load ptr, ptr %11, align 8, !tbaa !136
  %17 = getelementptr inbounds nuw %struct.tls_sigalgs_st, ptr %16, i64 %.03045, i32 1
  %18 = load i8, ptr %17, align 1, !tbaa !141
  switch i8 %18, label %.thread [
    i8 2, label %19
    i8 4, label %21
    i8 5, label %23
    i8 6, label %25
  ]

19:                                               ; preds = %.lr.ph
  %20 = tail call ptr @EVP_sha1() #21
  br label %tls12_get_hash.exit

21:                                               ; preds = %.lr.ph
  %22 = tail call ptr @EVP_sha256() #21
  br label %tls12_get_hash.exit

23:                                               ; preds = %.lr.ph
  %24 = tail call ptr @EVP_sha384() #21
  br label %tls12_get_hash.exit

25:                                               ; preds = %.lr.ph
  %26 = tail call ptr @EVP_sha512() #21
  br label %tls12_get_hash.exit

tls12_get_hash.exit:                              ; preds = %19, %21, %23, %25
  %.0.i = phi ptr [ %26, %25 ], [ %24, %23 ], [ %22, %21 ], [ %20, %19 ]
  %27 = icmp eq ptr %.0.i, null
  br i1 %27, label %.thread, label %28

28:                                               ; preds = %tls12_get_hash.exit
  %29 = tail call i32 @EVP_MD_type(ptr noundef nonnull %.0.i) #21
  %.not33 = icmp eq i32 %15, %29
  br i1 %.not33, label %30, label %.thread

30:                                               ; preds = %28
  %31 = load ptr, ptr %11, align 8, !tbaa !136
  %32 = getelementptr inbounds nuw %struct.tls_sigalgs_st, ptr %31, i64 %.03045
  %33 = load i8, ptr %32, align 1, !tbaa !143
  %switch.selectcmp.i = icmp eq i8 %33, 3
  %switch.select.i = select i1 %switch.selectcmp.i, i32 408, i32 -1
  %switch.selectcmp2.i = icmp eq i8 %33, 1
  %switch.select3.i = select i1 %switch.selectcmp2.i, i32 6, i32 %switch.select.i
  %.not34.not = icmp eq i32 %switch.select3.i, %4
  br i1 %.not34.not, label %.thread41, label %.thread

.thread:                                          ; preds = %.lr.ph, %tls12_get_hash.exit, %28, %30
  %34 = add nuw i64 %.03045, 1
  %35 = load i64, ptr %10, align 8, !tbaa !137
  %.not35 = icmp ult i64 %34, %35
  br i1 %.not35, label %.lr.ph, label %._crit_edge, !llvm.loop !144

._crit_edge:                                      ; preds = %.thread, %.lr.ph50.split
  %36 = phi i64 [ 0, %.lr.ph50.split ], [ %35, %.thread ]
  %37 = add nuw i64 %.02747, 1
  %exitcond.not = icmp eq i64 %37, %.02860
  br i1 %exitcond.not, label %._crit_edge51, label %.lr.ph50.split, !llvm.loop !145

._crit_edge51:                                    ; preds = %._crit_edge, %.lr.ph50, %7
  %38 = tail call ptr @EVP_sha1() #21
  br label %.thread41

.thread41:                                        ; preds = %30, %._crit_edge51
  %.4 = phi ptr [ %38, %._crit_edge51 ], [ %.0.i, %30 ]
  ret ptr %.4
}